Certificate:
    Data:
        Version: 3 (0x2)
        Serial Number:
            e9:08:79:42:3e:45:82:2b:3f:3e:72:70:76:18:26:9c
        Signature Algorithm: ecdsa-with-SHA256
        Issuer: CN=Vasquita Group Certification Authority - 2019
        Validity
            Not Before: Mar 11 16:43:41 2019 GMT
            Not After : Mar  8 16:43:41 2029 GMT
        Subject: CN=kibana.acme.com
        Subject Public Key Info:
            Public Key Algorithm: rsaEncryption
                RSA Public-Key: (4096 bit)
                Modulus:
                    00:a0:cc:da:42:10:87:9d:a1:b7:c1:98:b4:9e:b1:
                    cf:0b:f6:1a:1c:3f:c6:eb:15:0d:50:db:01:a2:98:
                    24:7b:27:81:d6:9d:38:02:5f:68:da:3f:6c:a9:c9:
                    19:cc:e5:7f:a7:34:d7:e8:0d:12:44:df:7c:fa:d7:
                    48:8b:fe:2e:fa:ec:92:e5:5d:5e:a9:0e:3c:63:20:
                    e9:89:87:b0:87:e2:3a:bd:29:33:98:f1:db:ed:19:
                    31:22:24:a0:ca:8e:09:ab:a4:51:d7:2f:d2:18:b0:
                    44:25:40:ac:c3:72:9f:11:f0:df:34:02:b4:22:4f:
                    dc:a4:0a:a2:da:4b:54:e4:aa:eb:d3:cc:81:2f:d5:
                    04:0c:d7:cc:60:48:d8:a1:ea:f1:f0:f7:a4:c7:f7:
                    ed:b1:e6:9c:5c:c8:d7:ae:d7:17:35:7f:ad:8c:68:
                    68:ca:0e:8f:d4:00:4c:d9:f6:0f:5d:6a:4a:22:05:
                    f9:da:2f:98:87:c0:13:ac:c7:c4:b9:fa:52:cc:a5:
                    07:7b:53:22:d5:85:41:32:4c:46:65:b1:6e:55:0b:
                    63:91:37:bf:84:ad:53:e0:00:fc:19:41:31:2c:f3:
                    7b:55:3b:8f:63:4a:07:7e:43:8b:1e:2b:0d:c1:59:
                    3f:43:b4:70:7b:69:7f:75:6c:f3:53:fa:04:60:ef:
                    c8:b8:0c:eb:b7:d2:73:17:e8:68:5d:1e:8e:f7:b1:
                    af:25:e5:d1:39:21:a2:c2:f3:32:73:2b:0c:ab:dc:
                    03:7b:ef:24:f8:bf:0e:9e:83:5a:b5:0f:3b:61:29:
                    80:65:b7:53:fa:b1:6f:e1:35:5a:15:fd:6b:87:29:
                    e4:ad:05:45:2e:a9:b5:cb:22:cc:15:6a:f4:f0:76:
                    90:0b:7f:41:3a:1a:cb:20:d8:c3:b7:b3:f7:c3:71:
                    33:07:b1:46:83:49:ea:20:95:79:fa:eb:d4:d7:2b:
                    0c:1e:27:5d:70:37:f0:ec:f4:6e:f3:9a:81:3a:df:
                    e4:78:89:b2:bd:ff:df:36:94:36:4b:9c:c3:12:96:
                    44:ce:50:fc:30:7f:71:72:ae:1a:9a:23:a6:b9:3c:
                    32:b9:08:2f:3d:c5:9b:5a:15:c5:cc:47:33:92:fa:
                    fc:4e:5f:e4:b0:99:84:10:cc:b3:d0:a8:6d:ba:a4:
                    a0:a3:dc:f7:f9:b8:37:b4:9a:07:7d:26:18:78:78:
                    20:ab:2b:f8:98:6a:cf:5e:6c:f3:f1:52:f9:b5:e6:
                    08:db:2b:71:49:03:03:17:ed:b3:4c:6b:44:d6:e0:
                    ec:eb:ae:d0:f1:2e:9d:c2:50:dc:e6:3a:ab:30:06:
                    42:ee:84:bb:40:43:01:34:05:ff:41:b2:b8:17:0e:
                    2f:89:bf
                Exponent: 65537 (0x10001)
        X509v3 extensions:
            X509v3 Basic Constraints: 
                CA:FALSE
            X509v3 Subject Key Identifier: 
                62:2A:F6:D6:5F:F3:8B:EC:19:99:16:8F:AA:A9:54:5B:C8:43:BC:23
            X509v3 Authority Key Identifier: 
                keyid:52:95:43:AD:F6:98:19:B0:5B:42:E3:82:BC:FF:9D:07:09:7D:04:92
                DirName:/CN=Vasquita Group Certification Authority - 2019
                serial:67:34:4C:C2:BD:53:82:0F:47:A7:F1:BF:4C:C1:E5:0B:3E:DB:AC:43

            X509v3 Extended Key Usage: 
                TLS Web Server Authentication
            X509v3 Key Usage: 
                Digital Signature, Key Encipherment
            X509v3 Subject Alternative Name: 
                DNS:kibana.acme.com
    Signature Algorithm: ecdsa-with-SHA256
         30:65:02:31:00:b0:38:bf:0c:b0:92:d1:de:84:2b:ba:67:f5:
         46:e3:30:dd:72:f5:a0:95:f4:48:ad:2c:ed:a0:65:9e:37:e9:
         6c:93:e8:87:f6:55:39:6a:c0:9f:9f:55:f4:48:b2:2c:93:02:
         30:27:fe:70:a6:74:7e:66:26:92:3f:c6:c6:b8:dd:9c:80:64:
         e7:08:03:91:bd:72:26:59:e4:2a:e3:1b:07:11:6d:95:fe:00:
         b9:ae:8f:c8:18:f8:eb:08:19:99:99:1c:59
-----BEGIN CERTIFICATE-----
MIIEHTCCA6OgAwIBAgIRAOkIeUI+RYIrPz5ycHYYJpwwCgYIKoZIzj0EAwIwODE2
MDQGA1UEAwwtVmFzcXVpdGEgR3JvdXAgQ2VydGlmaWNhdGlvbiBBdXRob3JpdHkg
LSAyMDE5MB4XDTE5MDMxMTE2NDM0MVoXDTI5MDMwODE2NDM0MVowGjEYMBYGA1UE
AwwPa2liYW5hLmFjbWUuY29tMIICIjANBgkqhkiG9w0BAQEFAAOCAg8AMIICCgKC
AgEAoMzaQhCHnaG3wZi0nrHPC/YaHD/G6xUNUNsBopgkeyeB1p04Al9o2j9sqckZ
zOV/pzTX6A0SRN98+tdIi/4u+uyS5V1eqQ48YyDpiYewh+I6vSkzmPHb7RkxIiSg
yo4Jq6RR1y/SGLBEJUCsw3KfEfDfNAK0Ik/cpAqi2ktU5Krr08yBL9UEDNfMYEjY
oerx8Pekx/ftseacXMjXrtcXNX+tjGhoyg6P1ABM2fYPXWpKIgX52i+Yh8ATrMfE
ufpSzKUHe1Mi1YVBMkxGZbFuVQtjkTe/hK1T4AD8GUExLPN7VTuPY0oHfkOLHisN
wVk/Q7Rwe2l/dWzzU/oEYO/IuAzrt9JzF+hoXR6O97GvJeXROSGiwvMycysMq9wD
e+8k+L8OnoNatQ87YSmAZbdT+rFv4TVaFf1rhynkrQVFLqm1yyLMFWr08HaQC39B
OhrLINjDt7P3w3EzB7FGg0nqIJV5+uvU1ysMHiddcDfw7PRu85qBOt/keImyvf/f
NpQ2S5zDEpZEzlD8MH9xcq4amiOmuTwyuQgvPcWbWhXFzEczkvr8Tl/ksJmEEMyz
0KhtuqSgo9z3+bg3tJoHfSYYeHggqyv4mGrPXmzz8VL5teYI2ytxSQMDF+2zTGtE
1uDs667Q8S6dwlDc5jqrMAZC7oS7QEMBNAX/QbK4Fw4vib8CAwEAAaOB4DCB3TAJ
BgNVHRMEAjAAMB0GA1UdDgQWBBRiKvbWX/OL7BmZFo+qqVRbyEO8IzBzBgNVHSME
bDBqgBRSlUOt9pgZsFtC44K8/50HCX0EkqE8pDowODE2MDQGA1UEAwwtVmFzcXVp
dGEgR3JvdXAgQ2VydGlmaWNhdGlvbiBBdXRob3JpdHkgLSAyMDE5ghRnNEzCvVOC
D0en8b9MweULPtusQzATBgNVHSUEDDAKBggrBgEFBQcDATALBgNVHQ8EBAMCBaAw
GgYDVR0RBBMwEYIPa2liYW5hLmFjbWUuY29tMAoGCCqGSM49BAMCA2gAMGUCMQCw
OL8MsJLR3oQrumf1RuMw3XL1oJX0SK0s7aBlnjfpbJPoh/ZVOWrAn59V9EiyLJMC
MCf+cKZ0fmYmkj/GxrjdnIBk5wgDkb1yJlnkKuMbBxFtlf4Aua6PyBj46wgZmZkc
WQ==
-----END CERTIFICATE-----
