Certificate:
    Data:
        Version: 3 (0x2)
        Serial Number:
            1d:ca:25:ce:9b:b7:6b:ef:df:83:68:e3:b8:36:4a:c3
        Signature Algorithm: ecdsa-with-SHA256
        Issuer: CN=Vasquita Group Certification Authority - 2019
        Validity
            Not Before: Feb  7 16:54:49 2019 GMT
            Not After : Feb  4 16:54:49 2029 GMT
        Subject: CN=vpnserver.acme.com
        Subject Public Key Info:
            Public Key Algorithm: id-ecPublicKey
                Public-Key: (384 bit)
                pub:
                    04:7e:cd:8f:ef:b8:75:0e:5b:9e:1f:f3:72:43:e7:
                    30:52:ae:8f:75:6e:72:96:94:4b:8e:fd:4f:f5:5f:
                    23:e4:a0:13:9f:e8:b2:e5:ed:d5:76:85:19:45:e3:
                    f0:1e:64:af:19:e5:2d:e7:03:75:26:d7:7b:cb:5b:
                    37:cd:87:fd:82:64:27:e0:9f:1b:34:18:c5:e7:2a:
                    b3:a7:09:33:fd:f4:0f:20:f9:ed:a2:2a:7c:97:92:
                    ae:8d:3d:22:ab:45:9c
                ASN1 OID: secp384r1
                NIST CURVE: P-384
        X509v3 extensions:
            X509v3 Basic Constraints: 
                CA:FALSE
            X509v3 Subject Key Identifier: 
                DD:D2:86:B2:1E:F7:93:B7:5F:E9:C7:B1:21:D8:10:FD:EE:A5:D8:CA
            X509v3 Authority Key Identifier: 
                keyid:52:95:43:AD:F6:98:19:B0:5B:42:E3:82:BC:FF:9D:07:09:7D:04:92
                DirName:/CN=Vasquita Group Certification Authority - 2019
                serial:67:34:4C:C2:BD:53:82:0F:47:A7:F1:BF:4C:C1:E5:0B:3E:DB:AC:43

            X509v3 Extended Key Usage: 
                TLS Web Server Authentication
            X509v3 Key Usage: 
                Digital Signature, Key Encipherment
            X509v3 Subject Alternative Name: 
                DNS:vpnserver.acme.com
    Signature Algorithm: ecdsa-with-SHA256
         30:66:02:31:00:88:73:94:02:92:f8:2e:39:a1:36:17:d9:9d:
         e7:3b:4c:4a:23:ef:dd:c6:b8:80:99:f9:b2:c0:12:6b:3f:92:
         6f:ae:a1:8c:72:5f:5a:22:1f:72:12:d9:55:3e:f1:30:a7:02:
         31:00:83:c7:94:aa:d1:82:32:a0:a9:c0:ba:2e:50:85:45:38:
         5a:41:8c:59:f0:ad:b8:9e:39:8f:bd:03:bb:1b:eb:92:19:57:
         bb:63:61:d8:30:9b:df:4b:c8:c7:7d:0e:65:3d
-----BEGIN CERTIFICATE-----
MIICdTCCAfqgAwIBAgIQHcolzpu3a+/fg2jjuDZKwzAKBggqhkjOPQQDAjA4MTYw
NAYDVQQDDC1WYXNxdWl0YSBHcm91cCBDZXJ0aWZpY2F0aW9uIEF1dGhvcml0eSAt
IDIwMTkwHhcNMTkwMjA3MTY1NDQ5WhcNMjkwMjA0MTY1NDQ5WjAdMRswGQYDVQQD
DBJ2cG5zZXJ2ZXIuYWNtZS5jb20wdjAQBgcqhkjOPQIBBgUrgQQAIgNiAAR+zY/v
uHUOW54f83JD5zBSro91bnKWlEuO/U/1XyPkoBOf6LLl7dV2hRlF4/AeZK8Z5S3n
A3Um13vLWzfNh/2CZCfgnxs0GMXnKrOnCTP99A8g+e2iKnyXkq6NPSKrRZyjgeMw
geAwCQYDVR0TBAIwADAdBgNVHQ4EFgQU3dKGsh73k7df6cexIdgQ/e6l2MowcwYD
VR0jBGwwaoAUUpVDrfaYGbBbQuOCvP+dBwl9BJKhPKQ6MDgxNjA0BgNVBAMMLVZh
c3F1aXRhIEdyb3VwIENlcnRpZmljYXRpb24gQXV0aG9yaXR5IC0gMjAxOYIUZzRM
wr1Tgg9Hp/G/TMHlCz7brEMwEwYDVR0lBAwwCgYIKwYBBQUHAwEwCwYDVR0PBAQD
AgWgMB0GA1UdEQQWMBSCEnZwbnNlcnZlci5hY21lLmNvbTAKBggqhkjOPQQDAgNp
ADBmAjEAiHOUApL4LjmhNhfZnec7TEoj793GuICZ+bLAEms/km+uoYxyX1oiH3IS
2VU+8TCnAjEAg8eUqtGCMqCpwLouUIVFOFpBjFnwrbieOY+9A7sb65IZV7tjYdgw
m99LyMd9DmU9
-----END CERTIFICATE-----
